; Function Attrs: nofree norecurse nosync nounwind memory(readwrite, inaccessiblemem: none) uwtable
define internal noundef i32 @filter16_slice(ptr noundef readonly captures(none) %0, ptr noundef readonly captures(none) %1, i32 noundef %2, i32 noundef %3, i32 noundef %4) #5 {
  %6 = getelementptr inbounds nuw i8, ptr %0, i64 72
  %7 = load ptr, ptr %6, align 8, !tbaa !4
  %8 = load ptr, ptr %1, align 8, !tbaa !38
  %9 = getelementptr inbounds nuw i8, ptr %7, i64 104
  %10 = sext i32 %4 to i64
  %11 = getelementptr inbounds [4 x ptr], ptr %9, i64 0, i64 %10
  %12 = load ptr, ptr %11, align 8, !tbaa !60
  %13 = getelementptr inbounds nuw i8, ptr %7, i64 8
  %14 = getelementptr inbounds [4 x i32], ptr %13, i64 0, i64 %10
  %15 = load i32, ptr %14, align 4, !tbaa !41
  %16 = getelementptr inbounds nuw i8, ptr %7, i64 24
  %17 = getelementptr inbounds [4 x i32], ptr %16, i64 0, i64 %10
  %18 = load i32, ptr %17, align 4, !tbaa !41
  %19 = getelementptr inbounds nuw i8, ptr %7, i64 48
  %20 = load double, ptr %19, align 8, !tbaa !62
  %21 = sitofp i32 %15 to double
  %22 = fmul nsz double %20, %21
  %23 = fptosi double %22 to i32
  %24 = getelementptr inbounds nuw i8, ptr %7, i64 56
  %25 = load double, ptr %24, align 8, !tbaa !63
  %26 = sitofp i32 %18 to double
  %27 = fmul nsz double %25, %26
  %28 = fptosi double %27 to i32
  %29 = mul nsw i32 %18, %2
  %30 = sdiv i32 %29, %3
  %31 = add nsw i32 %2, 1
  %32 = mul nsw i32 %18, %31
  %33 = sdiv i32 %32, %3
  %34 = getelementptr inbounds nuw i8, ptr %8, i64 64
  %35 = getelementptr inbounds [8 x i32], ptr %34, i64 0, i64 %10
  %36 = load i32, ptr %35, align 4, !tbaa !41
  %37 = ashr i32 %36, 1
  %38 = getelementptr inbounds [8 x ptr], ptr %8, i64 0, i64 %10
  %39 = load ptr, ptr %38, align 8, !tbaa !69
  %40 = icmp slt i32 %30, %33
  br i1 %40, label %.lr.ph81, label %._crit_edge82

.lr.ph81:                                         ; preds = %5
  %41 = getelementptr inbounds nuw i8, ptr %1, i64 8
  %42 = load ptr, ptr %41, align 8, !tbaa !40
  %43 = getelementptr inbounds nuw i8, ptr %42, i64 64
  %44 = getelementptr inbounds [8 x i32], ptr %43, i64 0, i64 %10
  %45 = load i32, ptr %44, align 4, !tbaa !41
  %46 = ashr i32 %45, 1
  %47 = getelementptr inbounds nuw i8, ptr %7, i64 88
  %48 = getelementptr inbounds [4 x i32], ptr %47, i64 0, i64 %10
  %49 = load i32, ptr %48, align 4, !tbaa !41
  %50 = icmp sgt i32 %15, 0
  %51 = trunc i32 %49 to i16
  %52 = sext i32 %46 to i64
  br i1 %50, label %.lr.ph.us.preheader, label %._crit_edge82

.lr.ph.us.preheader:                              ; preds = %.lr.ph81
  %53 = getelementptr inbounds [8 x ptr], ptr %42, i64 0, i64 %10
  %54 = load ptr, ptr %53, align 8, !tbaa !69
  %55 = mul nsw i32 %46, %30
  %56 = sext i32 %55 to i64
  %57 = getelementptr inbounds i16, ptr %54, i64 %56
  %58 = sext i32 %23 to i64
  %59 = sext i32 %30 to i64
  %60 = sext i32 %28 to i64
  %61 = zext nneg i32 %15 to i64
  %wide.trip.count88 = sext i32 %33 to i64
  %wide.trip.count = zext nneg i32 %15 to i64
  br label %.lr.ph.us

.lr.ph.us:                                        ; preds = %.lr.ph.us.preheader, %._crit_edge.us
  %indvars.iv85 = phi i64 [ %59, %.lr.ph.us.preheader ], [ %indvars.iv.next86, %._crit_edge.us ]
  %.079.us = phi ptr [ %57, %.lr.ph.us.preheader ], [ %92, %._crit_edge.us ]
  %62 = sub nsw i64 %indvars.iv85, %60
  %63 = mul nsw i64 %indvars.iv85, %61
  %invariant.gep = getelementptr i32, ptr %12, i64 %63
  br label %64

64:                                               ; preds = %.lr.ph.us, %.critedge.us
  %indvars.iv = phi i64 [ 0, %.lr.ph.us ], [ %indvars.iv.next, %.critedge.us ]
  %.07077.us = phi ptr [ %.079.us, %.lr.ph.us ], [ %91, %.critedge.us ]
  %65 = sub nsw i64 %indvars.iv, %58
  %gep = getelementptr i32, ptr %invariant.gep, i64 %indvars.iv
  %66 = load i32, ptr %gep, align 4, !tbaa !41
  %67 = sext i32 %66 to i64
  %68 = mul nsw i64 %65, %67
  %69 = add nsw i64 %68, 8388608
  %70 = lshr i64 %69, 24
  %71 = trunc i64 %70 to i32
  %72 = add i32 %71, %23
  %73 = mul nsw i64 %62, %67
  %74 = add nsw i64 %73, 8388608
  %75 = lshr i64 %74, 24
  %76 = trunc i64 %75 to i32
  %77 = add i32 %76, %28
  %78 = icmp sgt i32 %72, -1
  br i1 %78, label %79, label %.critedge.us

79:                                               ; preds = %64
  %80 = icmp sge i32 %72, %15
  %81 = icmp slt i32 %77, 0
  %82 = icmp sge i32 %77, %18
  %83 = or i1 %81, %82
  %spec.select.us = select i1 %80, i1 true, i1 %83
  br i1 %spec.select.us, label %.critedge.us, label %84

84:                                               ; preds = %79
  %85 = mul nsw i32 %77, %37
  %86 = add nsw i32 %85, %72
  %87 = sext i32 %86 to i64
  %88 = getelementptr inbounds i16, ptr %39, i64 %87
  %89 = load i16, ptr %88, align 2, !tbaa !72
  br label %.critedge.us

.critedge.us:                                     ; preds = %64, %79, %84
  %90 = phi i16 [ %89, %84 ], [ %51, %79 ], [ %51, %64 ]
  %91 = getelementptr inbounds nuw i8, ptr %.07077.us, i64 2
  store i16 %90, ptr %.07077.us, align 2, !tbaa !72
  %indvars.iv.next = add nuw nsw i64 %indvars.iv, 1
  %exitcond.not = icmp eq i64 %indvars.iv.next, %wide.trip.count
  br i1 %exitcond.not, label %._crit_edge.us, label %64, !llvm.loop !74

._crit_edge.us:                                   ; preds = %.critedge.us
  %indvars.iv.next86 = add nsw i64 %indvars.iv85, 1
  %92 = getelementptr inbounds i16, ptr %.079.us, i64 %52
  %exitcond89.not = icmp eq i64 %indvars.iv.next86, %wide.trip.count88
  br i1 %exitcond89.not, label %._crit_edge82, label %.lr.ph.us, !llvm.loop !75

._crit_edge82:                                    ; preds = %._crit_edge.us, %.lr.ph81, %5
  ret i32 0
}